target datalayout = "e-m:e-p270:32:32-p271:32:32-p272:64:64-i64:64-i128:128-f80:128-n8:16:32:64-S128"
target triple = "x86_64-pc-linux-gnu"

%"class.icu_77::UVector32" = type { %"class.icu_77::UObject", i32, i32, i32, ptr }
%"class.icu_77::UObject" = type { ptr }
%"class.icu_77::RuleBasedBreakIterator" = type <{ %"class.icu_77::BreakIterator", %struct.UText, ptr, i32, i32, i32, [4 x i8], ptr, ptr, ptr, ptr, i32, [4 x i8], ptr, %"class.icu_77::UCharCharacterIterator", i8, [7 x i8], ptr, i8, [7 x i8] }>
%"class.icu_77::BreakIterator" = type { %"class.icu_77::UObject", ptr, ptr, ptr }
%struct.UText = type { i32, i32, i32, i32, i64, i32, i32, i64, i32, i32, ptr, ptr, ptr, ptr, ptr, ptr, ptr, ptr, i64, i32, i32, i64, i32, i32 }
%"class.icu_77::UCharCharacterIterator" = type { %"class.icu_77::CharacterIterator", ptr }
%"class.icu_77::CharacterIterator" = type { %"class.icu_77::ForwardCharacterIterator", i32, i32, i32, i32 }
%"class.icu_77::ForwardCharacterIterator" = type { %"class.icu_77::UObject" }
%"class.icu_77::RuleBasedBreakIterator::BreakCache" = type { ptr, ptr, i32, i32, i32, i32, [128 x i32], [128 x i16], %"class.icu_77::UVector32" }

; Function Attrs: mustprogress uwtable
define void @_ZN6icu_7722RuleBasedBreakIterator10BreakCache6nextOLEv(ptr noundef nonnull align 8 dereferenceable(832) %0) #0 align 2 {
  %2 = alloca ptr, align 8
  store ptr %0, ptr %2, align 8, !tbaa !81
  %3 = load ptr, ptr %2, align 8
  %4 = call noundef signext i8 @_ZN6icu_7722RuleBasedBreakIterator10BreakCache17populateFollowingEv(ptr noundef nonnull align 8 dereferenceable(832) %3)
  %5 = icmp ne i8 %4, 0
  %6 = xor i1 %5, true
  %7 = getelementptr inbounds nuw %"class.icu_77::RuleBasedBreakIterator::BreakCache", ptr %3, i32 0, i32 1
  %8 = load ptr, ptr %7, align 8, !tbaa !82
  %9 = getelementptr inbounds nuw %"class.icu_77::RuleBasedBreakIterator", ptr %8, i32 0, i32 15
  %10 = zext i1 %6 to i8
  store i8 %10, ptr %9, align 8, !tbaa !90
  %11 = getelementptr inbounds nuw %"class.icu_77::RuleBasedBreakIterator::BreakCache", ptr %3, i32 0, i32 4
  %12 = load i32, ptr %11, align 8, !tbaa !86
  %13 = getelementptr inbounds nuw %"class.icu_77::RuleBasedBreakIterator::BreakCache", ptr %3, i32 0, i32 1
  %14 = load ptr, ptr %13, align 8, !tbaa !82
  %15 = getelementptr inbounds nuw %"class.icu_77::RuleBasedBreakIterator", ptr %14, i32 0, i32 4
  store i32 %12, ptr %15, align 4, !tbaa !88
  %16 = getelementptr inbounds nuw %"class.icu_77::RuleBasedBreakIterator::BreakCache", ptr %3, i32 0, i32 7
  %17 = getelementptr inbounds nuw %"class.icu_77::RuleBasedBreakIterator::BreakCache", ptr %3, i32 0, i32 5
  %18 = load i32, ptr %17, align 4, !tbaa !87
  %19 = sext i32 %18 to i64
  %20 = getelementptr inbounds [128 x i16], ptr %16, i64 0, i64 %19
  %21 = load i16, ptr %20, align 2, !tbaa !63
  %22 = zext i16 %21 to i32
  %23 = getelementptr inbounds nuw %"class.icu_77::RuleBasedBreakIterator::BreakCache", ptr %3, i32 0, i32 1
  %24 = load ptr, ptr %23, align 8, !tbaa !82
  %25 = getelementptr inbounds nuw %"class.icu_77::RuleBasedBreakIterator", ptr %24, i32 0, i32 5
  store i32 %22, ptr %25, align 8, !tbaa !89
  ret void
}

; Function Attrs: inlinehint mustprogress nounwind uwtable
define linkonce_odr noundef i32 @_ZN6icu_7722RuleBasedBreakIterator10BreakCache12modChunkSizeEi(i32 noundef %0) #5 comdat align 2 {
  %2 = alloca i32, align 4
  store i32 %0, ptr %2, align 4, !tbaa !22
  %3 = load i32, ptr %2, align 4, !tbaa !22
  %4 = and i32 %3, 127
  ret i32 %4
}

; Function Attrs: mustprogress uwtable
define linkonce_odr void @_ZN6icu_7722RuleBasedBreakIterator10BreakCache4nextEv(ptr noundef nonnull align 8 dereferenceable(832) %0) #0 comdat align 2 {
  %2 = alloca ptr, align 8
  store ptr %0, ptr %2, align 8, !tbaa !81
  %3 = load ptr, ptr %2, align 8
  %4 = getelementptr inbounds nuw %"class.icu_77::RuleBasedBreakIterator::BreakCache", ptr %3, i32 0, i32 5
  %5 = load i32, ptr %4, align 4, !tbaa !87
  %6 = getelementptr inbounds nuw %"class.icu_77::RuleBasedBreakIterator::BreakCache", ptr %3, i32 0, i32 3
  %7 = load i32, ptr %6, align 4, !tbaa !85
  %8 = icmp eq i32 %5, %7
  br i1 %8, label %9, label %10

9:                                                ; preds = %1
  call void @_ZN6icu_7722RuleBasedBreakIterator10BreakCache6nextOLEv(ptr noundef nonnull align 8 dereferenceable(832) %3)
  br label %36

10:                                               ; preds = %1
  %11 = getelementptr inbounds nuw %"class.icu_77::RuleBasedBreakIterator::BreakCache", ptr %3, i32 0, i32 5
  %12 = load i32, ptr %11, align 4, !tbaa !87
  %13 = add nsw i32 %12, 1
  %14 = call noundef i32 @_ZN6icu_7722RuleBasedBreakIterator10BreakCache12modChunkSizeEi(i32 noundef %13)
  %15 = getelementptr inbounds nuw %"class.icu_77::RuleBasedBreakIterator::BreakCache", ptr %3, i32 0, i32 5
  store i32 %14, ptr %15, align 4, !tbaa !87
  %16 = getelementptr inbounds nuw %"class.icu_77::RuleBasedBreakIterator::BreakCache", ptr %3, i32 0, i32 6
  %17 = getelementptr inbounds nuw %"class.icu_77::RuleBasedBreakIterator::BreakCache", ptr %3, i32 0, i32 5
  %18 = load i32, ptr %17, align 4, !tbaa !87
  %19 = sext i32 %18 to i64
  %20 = getelementptr inbounds [128 x i32], ptr %16, i64 0, i64 %19
  %21 = load i32, ptr %20, align 4, !tbaa !22
  %22 = getelementptr inbounds nuw %"class.icu_77::RuleBasedBreakIterator::BreakCache", ptr %3, i32 0, i32 1
  %23 = load ptr, ptr %22, align 8, !tbaa !82
  %24 = getelementptr inbounds nuw %"class.icu_77::RuleBasedBreakIterator", ptr %23, i32 0, i32 4
  store i32 %21, ptr %24, align 4, !tbaa !88
  %25 = getelementptr inbounds nuw %"class.icu_77::RuleBasedBreakIterator::BreakCache", ptr %3, i32 0, i32 4
  store i32 %21, ptr %25, align 8, !tbaa !86
  %26 = getelementptr inbounds nuw %"class.icu_77::RuleBasedBreakIterator::BreakCache", ptr %3, i32 0, i32 7
  %27 = getelementptr inbounds nuw %"class.icu_77::RuleBasedBreakIterator::BreakCache", ptr %3, i32 0, i32 5
  %28 = load i32, ptr %27, align 4, !tbaa !87
  %29 = sext i32 %28 to i64
  %30 = getelementptr inbounds [128 x i16], ptr %26, i64 0, i64 %29
  %31 = load i16, ptr %30, align 2, !tbaa !63
  %32 = zext i16 %31 to i32
  %33 = getelementptr inbounds nuw %"class.icu_77::RuleBasedBreakIterator::BreakCache", ptr %3, i32 0, i32 1
  %34 = load ptr, ptr %33, align 8, !tbaa !82
  %35 = getelementptr inbounds nuw %"class.icu_77::RuleBasedBreakIterator", ptr %34, i32 0, i32 5
  store i32 %32, ptr %35, align 8, !tbaa !89
  br label %36

36:                                               ; preds = %10, %9
  ret void
}

; Function Attrs: mustprogress uwtable
define noundef signext i8 @_ZN6icu_7722RuleBasedBreakIterator10BreakCache4seekEi(ptr noundef nonnull align 8 dereferenceable(832) %0, i32 noundef %1) #0 align 2 {
  %3 = alloca i8, align 1
  %4 = alloca ptr, align 8
  %5 = alloca i32, align 4
  %6 = alloca i32, align 4
  %7 = alloca i32, align 4
  %8 = alloca i32, align 4
  store ptr %0, ptr %4, align 8, !tbaa !81
  store i32 %1, ptr %5, align 4, !tbaa !22
  %9 = load ptr, ptr %4, align 8
  %10 = load i32, ptr %5, align 4, !tbaa !22
  %11 = getelementptr inbounds nuw %"class.icu_77::RuleBasedBreakIterator::BreakCache", ptr %9, i32 0, i32 6
  %12 = getelementptr inbounds nuw %"class.icu_77::RuleBasedBreakIterator::BreakCache", ptr %9, i32 0, i32 2
  %13 = load i32, ptr %12, align 8, !tbaa !84
  %14 = sext i32 %13 to i64
  %15 = getelementptr inbounds [128 x i32], ptr %11, i64 0, i64 %14
  %16 = load i32, ptr %15, align 4, !tbaa !22
  %17 = icmp slt i32 %10, %16
  br i1 %17, label %27, label %18

18:                                               ; preds = %2
  %19 = load i32, ptr %5, align 4, !tbaa !22
  %20 = getelementptr inbounds nuw %"class.icu_77::RuleBasedBreakIterator::BreakCache", ptr %9, i32 0, i32 6
  %21 = getelementptr inbounds nuw %"class.icu_77::RuleBasedBreakIterator::BreakCache", ptr %9, i32 0, i32 3
  %22 = load i32, ptr %21, align 4, !tbaa !85
  %23 = sext i32 %22 to i64
  %24 = getelementptr inbounds [128 x i32], ptr %20, i64 0, i64 %23
  %25 = load i32, ptr %24, align 4, !tbaa !22
  %26 = icmp sgt i32 %19, %25
  br i1 %26, label %27, label %28

27:                                               ; preds = %18, %2
  store i8 0, ptr %3, align 1
  br label %115

28:                                               ; preds = %18
  %29 = load i32, ptr %5, align 4, !tbaa !22
  %30 = getelementptr inbounds nuw %"class.icu_77::RuleBasedBreakIterator::BreakCache", ptr %9, i32 0, i32 6
  %31 = getelementptr inbounds nuw %"class.icu_77::RuleBasedBreakIterator::BreakCache", ptr %9, i32 0, i32 2
  %32 = load i32, ptr %31, align 8, !tbaa !84
  %33 = sext i32 %32 to i64
  %34 = getelementptr inbounds [128 x i32], ptr %30, i64 0, i64 %33
  %35 = load i32, ptr %34, align 4, !tbaa !22
  %36 = icmp eq i32 %29, %35
  br i1 %36, label %37, label %48

37:                                               ; preds = %28
  %38 = getelementptr inbounds nuw %"class.icu_77::RuleBasedBreakIterator::BreakCache", ptr %9, i32 0, i32 2
  %39 = load i32, ptr %38, align 8, !tbaa !84
  %40 = getelementptr inbounds nuw %"class.icu_77::RuleBasedBreakIterator::BreakCache", ptr %9, i32 0, i32 5
  store i32 %39, ptr %40, align 4, !tbaa !87
  %41 = getelementptr inbounds nuw %"class.icu_77::RuleBasedBreakIterator::BreakCache", ptr %9, i32 0, i32 6
  %42 = getelementptr inbounds nuw %"class.icu_77::RuleBasedBreakIterator::BreakCache", ptr %9, i32 0, i32 5
  %43 = load i32, ptr %42, align 4, !tbaa !87
  %44 = sext i32 %43 to i64
  %45 = getelementptr inbounds [128 x i32], ptr %41, i64 0, i64 %44
  %46 = load i32, ptr %45, align 4, !tbaa !22
  %47 = getelementptr inbounds nuw %"class.icu_77::RuleBasedBreakIterator::BreakCache", ptr %9, i32 0, i32 4
  store i32 %46, ptr %47, align 8, !tbaa !86
  store i8 1, ptr %3, align 1
  br label %115

48:                                               ; preds = %28
  %49 = load i32, ptr %5, align 4, !tbaa !22
  %50 = getelementptr inbounds nuw %"class.icu_77::RuleBasedBreakIterator::BreakCache", ptr %9, i32 0, i32 6
  %51 = getelementptr inbounds nuw %"class.icu_77::RuleBasedBreakIterator::BreakCache", ptr %9, i32 0, i32 3
  %52 = load i32, ptr %51, align 4, !tbaa !85
  %53 = sext i32 %52 to i64
  %54 = getelementptr inbounds [128 x i32], ptr %50, i64 0, i64 %53
  %55 = load i32, ptr %54, align 4, !tbaa !22
  %56 = icmp eq i32 %49, %55
  br i1 %56, label %57, label %68

57:                                               ; preds = %48
  %58 = getelementptr inbounds nuw %"class.icu_77::RuleBasedBreakIterator::BreakCache", ptr %9, i32 0, i32 3
  %59 = load i32, ptr %58, align 4, !tbaa !85
  %60 = getelementptr inbounds nuw %"class.icu_77::RuleBasedBreakIterator::BreakCache", ptr %9, i32 0, i32 5
  store i32 %59, ptr %60, align 4, !tbaa !87
  %61 = getelementptr inbounds nuw %"class.icu_77::RuleBasedBreakIterator::BreakCache", ptr %9, i32 0, i32 6
  %62 = getelementptr inbounds nuw %"class.icu_77::RuleBasedBreakIterator::BreakCache", ptr %9, i32 0, i32 5
  %63 = load i32, ptr %62, align 4, !tbaa !87
  %64 = sext i32 %63 to i64
  %65 = getelementptr inbounds [128 x i32], ptr %61, i64 0, i64 %64
  %66 = load i32, ptr %65, align 4, !tbaa !22
  %67 = getelementptr inbounds nuw %"class.icu_77::RuleBasedBreakIterator::BreakCache", ptr %9, i32 0, i32 4
  store i32 %66, ptr %67, align 8, !tbaa !86
  store i8 1, ptr %3, align 1
  br label %115

68:                                               ; preds = %48
  call void @llvm.lifetime.start.p0(i64 4, ptr %6) #8
  %69 = getelementptr inbounds nuw %"class.icu_77::RuleBasedBreakIterator::BreakCache", ptr %9, i32 0, i32 2
  %70 = load i32, ptr %69, align 8, !tbaa !84
  store i32 %70, ptr %6, align 4, !tbaa !22
  call void @llvm.lifetime.start.p0(i64 4, ptr %7) #8
  %71 = getelementptr inbounds nuw %"class.icu_77::RuleBasedBreakIterator::BreakCache", ptr %9, i32 0, i32 3
  %72 = load i32, ptr %71, align 4, !tbaa !85
  store i32 %72, ptr %7, align 4, !tbaa !22
  br label %73

73:                                               ; preds = %102, %68
  %74 = load i32, ptr %6, align 4, !tbaa !22
  %75 = load i32, ptr %7, align 4, !tbaa !22
  %76 = icmp ne i32 %74, %75
  br i1 %76, label %77, label %103

77:                                               ; preds = %73
  call void @llvm.lifetime.start.p0(i64 4, ptr %8) #8
  %78 = load i32, ptr %6, align 4, !tbaa !22
  %79 = load i32, ptr %7, align 4, !tbaa !22
  %80 = add nsw i32 %78, %79
  %81 = load i32, ptr %6, align 4, !tbaa !22
  %82 = load i32, ptr %7, align 4, !tbaa !22
  %83 = icmp sgt i32 %81, %82
  %84 = select i1 %83, i32 128, i32 0
  %85 = add nsw i32 %80, %84
  %86 = sdiv i32 %85, 2
  store i32 %86, ptr %8, align 4, !tbaa !22
  %87 = load i32, ptr %8, align 4, !tbaa !22
  %88 = call noundef i32 @_ZN6icu_7722RuleBasedBreakIterator10BreakCache12modChunkSizeEi(i32 noundef %87)
  store i32 %88, ptr %8, align 4, !tbaa !22
  %89 = getelementptr inbounds nuw %"class.icu_77::RuleBasedBreakIterator::BreakCache", ptr %9, i32 0, i32 6
  %90 = load i32, ptr %8, align 4, !tbaa !22
  %91 = sext i32 %90 to i64
  %92 = getelementptr inbounds [128 x i32], ptr %89, i64 0, i64 %91
  %93 = load i32, ptr %92, align 4, !tbaa !22
  %94 = load i32, ptr %5, align 4, !tbaa !22
  %95 = icmp sgt i32 %93, %94
  br i1 %95, label %96, label %98

96:                                               ; preds = %77
  %97 = load i32, ptr %8, align 4, !tbaa !22
  store i32 %97, ptr %7, align 4, !tbaa !22
  br label %102

98:                                               ; preds = %77
  %99 = load i32, ptr %8, align 4, !tbaa !22
  %100 = add nsw i32 %99, 1
  %101 = call noundef i32 @_ZN6icu_7722RuleBasedBreakIterator10BreakCache12modChunkSizeEi(i32 noundef %100)
  store i32 %101, ptr %6, align 4, !tbaa !22
  br label %102

102:                                              ; preds = %98, %96
  call void @llvm.lifetime.end.p0(i64 4, ptr %8) #8
  br label %73, !llvm.loop !91

103:                                              ; preds = %73
  %104 = load i32, ptr %7, align 4, !tbaa !22
  %105 = sub nsw i32 %104, 1
  %106 = call noundef i32 @_ZN6icu_7722RuleBasedBreakIterator10BreakCache12modChunkSizeEi(i32 noundef %105)
  %107 = getelementptr inbounds nuw %"class.icu_77::RuleBasedBreakIterator::BreakCache", ptr %9, i32 0, i32 5
  store i32 %106, ptr %107, align 4, !tbaa !87
  %108 = getelementptr inbounds nuw %"class.icu_77::RuleBasedBreakIterator::BreakCache", ptr %9, i32 0, i32 6
  %109 = getelementptr inbounds nuw %"class.icu_77::RuleBasedBreakIterator::BreakCache", ptr %9, i32 0, i32 5
  %110 = load i32, ptr %109, align 4, !tbaa !87
  %111 = sext i32 %110 to i64
  %112 = getelementptr inbounds [128 x i32], ptr %108, i64 0, i64 %111
  %113 = load i32, ptr %112, align 4, !tbaa !22
  %114 = getelementptr inbounds nuw %"class.icu_77::RuleBasedBreakIterator::BreakCache", ptr %9, i32 0, i32 4
  store i32 %113, ptr %114, align 8, !tbaa !86
  store i8 1, ptr %3, align 1
  call void @llvm.lifetime.end.p0(i64 4, ptr %7) #8
  call void @llvm.lifetime.end.p0(i64 4, ptr %6) #8
  br label %115

115:                                              ; preds = %103, %57, %37, %27
  %116 = load i8, ptr %3, align 1
  ret i8 %116
}

; Function Attrs: inlinehint mustprogress nounwind uwtable
define internal noundef signext i8 @_ZL9U_FAILURE10UErrorCode(i32 noundef %0) #5 {
  %2 = alloca i32, align 4
  store i32 %0, ptr %2, align 4, !tbaa !31
  %3 = load i32, ptr %2, align 4, !tbaa !31
  %4 = icmp sgt i32 %3, 0
  %5 = zext i1 %4 to i8
  ret i8 %5
}

; Function Attrs: mustprogress uwtable
define void @_ZN6icu_7722RuleBasedBreakIterator10BreakCache9followingEiR10UErrorCode(ptr noundef nonnull align 8 dereferenceable(832) %0, i32 noundef %1, ptr noundef nonnull align 4 dereferenceable(4) %2) #0 align 2 {
  %4 = alloca ptr, align 8
  %5 = alloca i32, align 4
  %6 = alloca ptr, align 8
  store ptr %0, ptr %4, align 8, !tbaa !81
  store i32 %1, ptr %5, align 4, !tbaa !22
  store ptr %2, ptr %6, align 8, !tbaa !10
  %7 = load ptr, ptr %4, align 8
  %8 = load ptr, ptr %6, align 8, !tbaa !10
  %9 = load i32, ptr %8, align 4, !tbaa !31
  %10 = call noundef signext i8 @_ZL9U_FAILURE10UErrorCode(i32 noundef %9)
  %11 = icmp ne i8 %10, 0
  br i1 %11, label %12, label %13

12:                                               ; preds = %3
  br label %31

13:                                               ; preds = %3
  %14 = load i32, ptr %5, align 4, !tbaa !22
  %15 = getelementptr inbounds nuw %"class.icu_77::RuleBasedBreakIterator::BreakCache", ptr %7, i32 0, i32 4
  %16 = load i32, ptr %15, align 8, !tbaa !86
  %17 = icmp eq i32 %14, %16
  br i1 %17, label %27, label %18

18:                                               ; preds = %13
  %19 = load i32, ptr %5, align 4, !tbaa !22
  %20 = call noundef signext i8 @_ZN6icu_7722RuleBasedBreakIterator10BreakCache4seekEi(ptr noundef nonnull align 8 dereferenceable(832) %7, i32 noundef %19)
  %21 = icmp ne i8 %20, 0
  br i1 %21, label %27, label %22

22:                                               ; preds = %18
  %23 = load i32, ptr %5, align 4, !tbaa !22
  %24 = load ptr, ptr %6, align 8, !tbaa !10
  %25 = call noundef signext i8 @_ZN6icu_7722RuleBasedBreakIterator10BreakCache12populateNearEiR10UErrorCode(ptr noundef nonnull align 8 dereferenceable(832) %7, i32 noundef %23, ptr noundef nonnull align 4 dereferenceable(4) %24)
  %26 = icmp ne i8 %25, 0
  br i1 %26, label %27, label %31

27:                                               ; preds = %22, %18, %13
  %28 = getelementptr inbounds nuw %"class.icu_77::RuleBasedBreakIterator::BreakCache", ptr %7, i32 0, i32 1
  %29 = load ptr, ptr %28, align 8, !tbaa !82
  %30 = getelementptr inbounds nuw %"class.icu_77::RuleBasedBreakIterator", ptr %29, i32 0, i32 15
  store i8 0, ptr %30, align 8, !tbaa !90
  call void @_ZN6icu_7722RuleBasedBreakIterator10BreakCache4nextEv(ptr noundef nonnull align 8 dereferenceable(832) %7)
  br label %31

31:                                               ; preds = %12, %27, %22
  ret void
}