; Function Attrs: mustprogress uwtable
define void @_ZN6icu_7722RuleBasedBreakIterator10BreakCache9followingEiR10UErrorCode(ptr noundef nonnull align 8 dereferenceable(832) %0, i32 noundef %1, ptr noundef nonnull align 4 dereferenceable(4) %2) local_unnamed_addr #0 align 2 {
  %4 = load i32, ptr %2, align 4, !tbaa !24
  %5 = icmp slt i32 %4, 1
  br i1 %5, label %6, label %84

6:                                                ; preds = %3
  %7 = getelementptr inbounds nuw i8, ptr %0, i64 24
  %8 = load i32, ptr %7, align 8, !tbaa !75
  %9 = icmp eq i32 %1, %8
  br i1 %9, label %52, label %10

10:                                               ; preds = %6
  %11 = getelementptr inbounds nuw i8, ptr %0, i64 32
  %12 = getelementptr inbounds nuw i8, ptr %0, i64 16
  %13 = load i32, ptr %12, align 8, !tbaa !73
  %14 = sext i32 %13 to i64
  %15 = getelementptr inbounds [128 x i32], ptr %11, i64 0, i64 %14
  %16 = load i32, ptr %15, align 4, !tbaa !17
  %17 = icmp slt i32 %1, %16
  br i1 %17, label %50, label %18

18:                                               ; preds = %10
  %19 = getelementptr inbounds nuw i8, ptr %0, i64 20
  %20 = load i32, ptr %19, align 4, !tbaa !74
  %21 = sext i32 %20 to i64
  %22 = getelementptr inbounds [128 x i32], ptr %11, i64 0, i64 %21
  %23 = load i32, ptr %22, align 4, !tbaa !17
  %24 = icmp sgt i32 %1, %23
  br i1 %24, label %50, label %25

25:                                               ; preds = %18
  %26 = icmp eq i32 %1, %16
  br i1 %26, label %27, label %29

27:                                               ; preds = %25
  %28 = getelementptr inbounds nuw i8, ptr %0, i64 28
  store i32 %13, ptr %28, align 4, !tbaa !76
  br label %_ZN6icu_7722RuleBasedBreakIterator10BreakCache4seekEi.exit

29:                                               ; preds = %25
  %30 = icmp eq i32 %1, %23
  br i1 %30, label %31, label %.preheader.i

.preheader.i:                                     ; preds = %29
  %.not23.i = icmp eq i32 %13, %20
  br i1 %.not23.i, label %._crit_edge.i, label %.lr.ph.i

31:                                               ; preds = %29
  %32 = getelementptr inbounds nuw i8, ptr %0, i64 28
  store i32 %20, ptr %32, align 4, !tbaa !76
  br label %_ZN6icu_7722RuleBasedBreakIterator10BreakCache4seekEi.exit

.lr.ph.i:                                         ; preds = %.preheader.i, %.lr.ph.i
  %.025.i = phi i32 [ %.1.i, %.lr.ph.i ], [ %20, %.preheader.i ]
  %.01724.i = phi i32 [ %.118.i, %.lr.ph.i ], [ %13, %.preheader.i ]
  %33 = add nsw i32 %.01724.i, %.025.i
  %34 = icmp sgt i32 %.01724.i, %.025.i
  %35 = select i1 %34, i32 128, i32 0
  %36 = add nsw i32 %33, %35
  %37 = sdiv i32 %36, 2
  %38 = and i32 %37, 127
  %39 = zext nneg i32 %38 to i64
  %40 = getelementptr inbounds nuw [128 x i32], ptr %11, i64 0, i64 %39
  %41 = load i32, ptr %40, align 4, !tbaa !17
  %42 = icmp sgt i32 %41, %1
  %43 = add nsw i32 %37, 1
  %44 = and i32 %43, 127
  %.118.i = select i1 %42, i32 %.01724.i, i32 %44
  %.1.i = select i1 %42, i32 %38, i32 %.025.i
  %.not.i = icmp eq i32 %.118.i, %.1.i
  br i1 %.not.i, label %._crit_edge.i, label %.lr.ph.i, !llvm.loop !80

._crit_edge.i:                                    ; preds = %.lr.ph.i, %.preheader.i
  %.0.lcssa.i = phi i32 [ %13, %.preheader.i ], [ %.118.i, %.lr.ph.i ]
  %45 = add i32 %.0.lcssa.i, 127
  %46 = and i32 %45, 127
  %47 = getelementptr inbounds nuw i8, ptr %0, i64 28
  store i32 %46, ptr %47, align 4, !tbaa !76
  %48 = zext nneg i32 %46 to i64
  %49 = getelementptr inbounds nuw [128 x i32], ptr %11, i64 0, i64 %48
  br label %_ZN6icu_7722RuleBasedBreakIterator10BreakCache4seekEi.exit

_ZN6icu_7722RuleBasedBreakIterator10BreakCache4seekEi.exit: ; preds = %27, %31, %._crit_edge.i
  %.sink.in.i = phi ptr [ %49, %._crit_edge.i ], [ %22, %31 ], [ %15, %27 ]
  %.sink.i = load i32, ptr %.sink.in.i, align 4, !tbaa !17
  store i32 %.sink.i, ptr %7, align 8, !tbaa !75
  br label %52

50:                                               ; preds = %18, %10
  %51 = tail call noundef signext i8 @_ZN6icu_7722RuleBasedBreakIterator10BreakCache12populateNearEiR10UErrorCode(ptr noundef nonnull align 8 dereferenceable(832) %0, i32 noundef %1, ptr noundef nonnull align 4 dereferenceable(4) %2)
  %.not6 = icmp eq i8 %51, 0
  br i1 %.not6, label %84, label %52

52:                                               ; preds = %_ZN6icu_7722RuleBasedBreakIterator10BreakCache4seekEi.exit, %50, %6
  %53 = getelementptr inbounds nuw i8, ptr %0, i64 8
  %54 = load ptr, ptr %53, align 8, !tbaa !69
  %55 = getelementptr inbounds nuw i8, ptr %54, i64 280
  store i8 0, ptr %55, align 8, !tbaa !79
  %56 = getelementptr inbounds nuw i8, ptr %0, i64 28
  %57 = load i32, ptr %56, align 4, !tbaa !76
  %58 = getelementptr inbounds nuw i8, ptr %0, i64 20
  %59 = load i32, ptr %58, align 4, !tbaa !74
  %60 = icmp eq i32 %57, %59
  br i1 %60, label %61, label %72

61:                                               ; preds = %52
  %62 = tail call noundef signext i8 @_ZN6icu_7722RuleBasedBreakIterator10BreakCache17populateFollowingEv(ptr noundef nonnull align 8 dereferenceable(832) %0)
  %63 = load ptr, ptr %53, align 8, !tbaa !69
  %64 = getelementptr inbounds nuw i8, ptr %63, i64 280
  %65 = xor i8 %62, 1
  store i8 %65, ptr %64, align 8, !tbaa !79
  %66 = load i32, ptr %7, align 8, !tbaa !75
  %67 = getelementptr inbounds nuw i8, ptr %63, i64 188
  store i32 %66, ptr %67, align 4, !tbaa !77
  %68 = getelementptr inbounds nuw i8, ptr %0, i64 544
  %69 = load i32, ptr %56, align 4, !tbaa !76
  %70 = sext i32 %69 to i64
  %71 = getelementptr inbounds [128 x i16], ptr %68, i64 0, i64 %70
  br label %_ZN6icu_7722RuleBasedBreakIterator10BreakCache4nextEv.exit

72:                                               ; preds = %52
  %73 = add nsw i32 %57, 1
  %74 = and i32 %73, 127
  store i32 %74, ptr %56, align 4, !tbaa !76
  %75 = getelementptr inbounds nuw i8, ptr %0, i64 32
  %76 = zext nneg i32 %74 to i64
  %77 = getelementptr inbounds nuw [128 x i32], ptr %75, i64 0, i64 %76
  %78 = load i32, ptr %77, align 4, !tbaa !17
  %79 = getelementptr inbounds nuw i8, ptr %54, i64 188
  store i32 %78, ptr %79, align 4, !tbaa !77
  store i32 %78, ptr %7, align 8, !tbaa !75
  %80 = getelementptr inbounds nuw i8, ptr %0, i64 544
  %81 = getelementptr inbounds nuw [128 x i16], ptr %80, i64 0, i64 %76
  br label %_ZN6icu_7722RuleBasedBreakIterator10BreakCache4nextEv.exit

_ZN6icu_7722RuleBasedBreakIterator10BreakCache4nextEv.exit: ; preds = %61, %72
  %.sink3.in.i = phi ptr [ %81, %72 ], [ %71, %61 ]
  %.sink2.i = phi ptr [ %54, %72 ], [ %63, %61 ]
  %.sink3.i = load i16, ptr %.sink3.in.i, align 2, !tbaa !71
  %82 = zext i16 %.sink3.i to i32
  %83 = getelementptr inbounds nuw i8, ptr %.sink2.i, i64 192
  store i32 %82, ptr %83, align 8, !tbaa !78
  br label %84

84:                                               ; preds = %3, %_ZN6icu_7722RuleBasedBreakIterator10BreakCache4nextEv.exit, %50
  ret void
}